target datalayout = "e-m:e-p270:32:32-p271:32:32-p272:64:64-i64:64-i128:128-f80:128-n8:16:32:64-S128"
target triple = "x86_64-pc-linux-gnu"

%struct.cmsGDB = type { ptr, [16 x [16 x %struct.cmsGDBPoint]] }
%struct.cmsGDBPoint = type { i32, %struct.cmsSpherical }
%struct.cmsSpherical = type { double, double, double }

; Function Attrs: nounwind uwtable
define hidden void @cmsGBDFree(ptr noundef %0) #0 {
  %2 = alloca ptr, align 8
  %3 = alloca ptr, align 8
  store ptr %0, ptr %2, align 8
  %4 = load ptr, ptr %2, align 8
  store ptr %4, ptr %3, align 8
  %5 = load ptr, ptr %2, align 8
  %6 = icmp ne ptr %5, null
  br i1 %6, label %7, label %12

7:                                                ; preds = %1
  %8 = load ptr, ptr %3, align 8
  %9 = getelementptr inbounds %struct.cmsGDB, ptr %8, i32 0, i32 0
  %10 = load ptr, ptr %9, align 8
  %11 = load ptr, ptr %3, align 8
  call void @_cmsFree(ptr noundef %10, ptr noundef %11)
  br label %12

12:                                               ; preds = %7, %1
  ret void
}