; Function Attrs: nounwind uwtable
define hidden void @cmsGBDFree(ptr noundef %0) local_unnamed_addr #0 {
  %.not = icmp eq ptr %0, null
  br i1 %.not, label %4, label %2

2:                                                ; preds = %1
  %3 = load ptr, ptr %0, align 8
  tail call void @_cmsFree(ptr noundef %3, ptr noundef nonnull %0) #8
  br label %4

4:                                                ; preds = %2, %1
  ret void
}